target datalayout = "e-m:e-p270:32:32-p271:32:32-p272:64:64-i64:64-i128:128-f80:128-n8:16:32:64-S128"
target triple = "x86_64-pc-linux-gnu"

%struct.Gpr_t = type { ptr, ptr, ptr, ptr, ptr, ptr, ptr, ptr, ptr, ptr, ptr, i32, ptr, ptr, ptr, i32, i32, ptr, i32, ptr, i64, [1 x %struct.__jmp_buf_tag] }
%struct.__jmp_buf_tag = type { [8 x i64], i32, %struct.__sigset_t }
%struct.__sigset_t = type { [16 x i64] }

@name_used = internal global i32 0, align 4

; Function Attrs: nounwind uwtable
define void @closeGPRState(ptr noundef %0) #0 {
  %2 = alloca ptr, align 8
  store ptr %0, ptr %2, align 8, !tbaa !7
  %3 = load ptr, ptr %2, align 8, !tbaa !7
  %4 = icmp ne ptr %3, null
  br i1 %4, label %6, label %5

5:                                                ; preds = %1
  br label %17

6:                                                ; preds = %1
  %7 = load ptr, ptr %2, align 8, !tbaa !7
  %8 = getelementptr inbounds nuw %struct.Gpr_t, ptr %7, i32 0, i32 15
  %9 = load i32, ptr %8, align 8, !tbaa !23
  store i32 %9, ptr @name_used, align 4, !tbaa !22
  %10 = load ptr, ptr %2, align 8, !tbaa !7
  %11 = getelementptr inbounds nuw %struct.Gpr_t, ptr %10, i32 0, i32 8
  %12 = load ptr, ptr %11, align 8, !tbaa !9
  call void @free(ptr noundef %12) #10
  %13 = load ptr, ptr %2, align 8, !tbaa !7
  %14 = getelementptr inbounds nuw %struct.Gpr_t, ptr %13, i32 0, i32 5
  %15 = load ptr, ptr %14, align 8, !tbaa !51
  call void @free(ptr noundef %15) #10
  %16 = load ptr, ptr %2, align 8, !tbaa !7
  call void @free(ptr noundef %16) #10
  br label %17

17:                                               ; preds = %6, %5
  ret void
}