; Function Attrs: mustprogress nounwind willreturn uwtable
define void @closeGPRState(ptr noundef captures(address_is_null) %0) local_unnamed_addr #10 {
  %.not = icmp eq ptr %0, null
  br i1 %.not, label %9, label %2

2:                                                ; preds = %1
  %3 = getelementptr inbounds nuw i8, ptr %0, i64 120
  %4 = load i32, ptr %3, align 8, !tbaa !19
  store i32 %4, ptr @name_used, align 4, !tbaa !18
  %5 = getelementptr inbounds nuw i8, ptr %0, i64 64
  %6 = load ptr, ptr %5, align 8, !tbaa !3
  tail call void @free(ptr noundef %6) #16
  %7 = getelementptr inbounds nuw i8, ptr %0, i64 40
  %8 = load ptr, ptr %7, align 8, !tbaa !43
  tail call void @free(ptr noundef %8) #16
  tail call void @free(ptr noundef nonnull %0) #16
  br label %9

9:                                                ; preds = %1, %2
  ret void
}